(iextract.project
ProjectInfo
p0
(dp1
S'connections'
p2
ccollections
defaultdict
p3
(c__builtin__
set
p4
tp5
Rp6
S'dest_prefix'
p7
g4
((lp8
S'dest'
p9
atp10
Rp11
sS'src_prefix'
p12
g4
((lp13
S'src'
p14
atp15
Rp16
ssS'fields'
p17
(lp18
S'date'
p19
ag14
ag9
aS'time'
p20
asS'aux_fields'
p21
(lp22
g7
ag12
asS'custom_tokens'
p23
(dp24
g14
S'src:'
p25
sS'dst'
p26
S'dest:'
p27
ssb.